target datalayout = "e-m:e-p270:32:32-p271:32:32-p272:64:64-i64:64-i128:128-f80:128-n8:16:32:64-S128"
target triple = "x86_64-pc-linux-gnu"

%struct.Int128_ = type { i64, i64 }
%struct.Int = type { %struct.Int128_, i32 }

; Function Attrs: nounwind uwtable
define dso_local { i64, i64 } @i128_not(i64 %0, i64 %1) #0 {
  %3 = alloca %struct.Int128_, align 8
  %4 = alloca %struct.Int128_, align 8
  %5 = getelementptr inbounds { i64, i64 }, ptr %4, i32 0, i32 0
  store i64 %0, ptr %5, align 8
  %6 = getelementptr inbounds { i64, i64 }, ptr %4, i32 0, i32 1
  store i64 %1, ptr %6, align 8
  %7 = getelementptr inbounds %struct.Int128_, ptr %3, i32 0, i32 0
  %8 = getelementptr inbounds %struct.Int128_, ptr %4, i32 0, i32 0
  %9 = load i64, ptr %8, align 8
  %10 = xor i64 %9, -1
  store i64 %10, ptr %7, align 8
  %11 = getelementptr inbounds %struct.Int128_, ptr %3, i32 0, i32 1
  %12 = getelementptr inbounds %struct.Int128_, ptr %4, i32 0, i32 1
  %13 = load i64, ptr %12, align 8
  %14 = xor i64 %13, -1
  store i64 %14, ptr %11, align 8
  %15 = load { i64, i64 }, ptr %3, align 8
  ret { i64, i64 } %15
}

; Function Attrs: nounwind uwtable
define dso_local void @int_not(ptr dead_on_unwind noalias writable sret(%struct.Int) align 8 %0, ptr noundef byval(%struct.Int) align 8 %1) #0 {
  %3 = alloca %struct.Int128_, align 8
  %4 = getelementptr inbounds %struct.Int, ptr %0, i32 0, i32 0
  %5 = getelementptr inbounds %struct.Int, ptr %1, i32 0, i32 0
  %6 = getelementptr inbounds { i64, i64 }, ptr %5, i32 0, i32 0
  %7 = load i64, ptr %6, align 8
  %8 = getelementptr inbounds { i64, i64 }, ptr %5, i32 0, i32 1
  %9 = load i64, ptr %8, align 8
  %10 = call { i64, i64 } @i128_not(i64 %7, i64 %9)
  %11 = getelementptr inbounds { i64, i64 }, ptr %3, i32 0, i32 0
  %12 = extractvalue { i64, i64 } %10, 0
  store i64 %12, ptr %11, align 8
  %13 = getelementptr inbounds { i64, i64 }, ptr %3, i32 0, i32 1
  %14 = extractvalue { i64, i64 } %10, 1
  store i64 %14, ptr %13, align 8
  %15 = getelementptr inbounds %struct.Int, ptr %1, i32 0, i32 1
  %16 = load i32, ptr %15, align 8
  %17 = getelementptr inbounds { i64, i64 }, ptr %3, i32 0, i32 0
  %18 = load i64, ptr %17, align 8
  %19 = getelementptr inbounds { i64, i64 }, ptr %3, i32 0, i32 1
  %20 = load i64, ptr %19, align 8
  %21 = call { i64, i64 } @i128_extend(i64 %18, i64 %20, i32 noundef %16)
  %22 = getelementptr inbounds { i64, i64 }, ptr %4, i32 0, i32 0
  %23 = extractvalue { i64, i64 } %21, 0
  store i64 %23, ptr %22, align 8
  %24 = getelementptr inbounds { i64, i64 }, ptr %4, i32 0, i32 1
  %25 = extractvalue { i64, i64 } %21, 1
  store i64 %25, ptr %24, align 8
  %26 = getelementptr inbounds %struct.Int, ptr %0, i32 0, i32 1
  %27 = getelementptr inbounds %struct.Int, ptr %1, i32 0, i32 1
  %28 = load i32, ptr %27, align 8
  store i32 %28, ptr %26, align 8
  ret void
}