; Function Attrs: nounwind uwtable
define dso_local void @int_not(ptr dead_on_unwind noalias writable writeonly sret(%struct.Int) align 8 captures(none) initializes((0, 20)) %0, ptr noundef readonly byval(%struct.Int) align 8 captures(none) %1) local_unnamed_addr #0 {
  %3 = load i64, ptr %1, align 8
  %4 = getelementptr inbounds nuw i8, ptr %1, i64 8
  %5 = load i64, ptr %4, align 8
  %6 = xor i64 %3, -1
  %7 = xor i64 %5, -1
  %8 = getelementptr inbounds nuw i8, ptr %1, i64 16
  %9 = load i32, ptr %8, align 8
  %10 = tail call { i64, i64 } @i128_extend(i64 %6, i64 %7, i32 noundef %9)
  %11 = extractvalue { i64, i64 } %10, 0
  store i64 %11, ptr %0, align 8
  %12 = getelementptr inbounds nuw i8, ptr %0, i64 8
  %13 = extractvalue { i64, i64 } %10, 1
  store i64 %13, ptr %12, align 8
  %14 = getelementptr inbounds nuw i8, ptr %0, i64 16
  store i32 %9, ptr %14, align 8
  ret void
}